; Function Attrs: mustprogress nofree norecurse nosync nounwind willreturn memory(argmem: write) uwtable
define dso_local void @_ZN12CVQualifiersC2Ebb(ptr nocapture noundef nonnull writeonly align 8 dereferenceable(96) %0, i1 noundef zeroext %1, i1 noundef zeroext %2) unnamed_addr #3 align 2 personality ptr @__gxx_personality_v0 {
  %4 = zext i1 %1 to i8
  %5 = zext i1 %2 to i8
  store ptr getelementptr inbounds ({ [4 x ptr] }, ptr @_ZTV12CVQualifiers, i64 0, i32 0, i64 2), ptr %0, align 8
  %6 = getelementptr inbounds i8, ptr %0, i64 8
  store i8 %4, ptr %6, align 8
  %7 = getelementptr inbounds i8, ptr %0, i64 9
  store i8 %5, ptr %7, align 1
  %8 = getelementptr inbounds i8, ptr %0, i64 16
  store ptr null, ptr %8, align 8
  %9 = getelementptr inbounds i8, ptr %0, i64 24
  store i32 0, ptr %9, align 8
  %10 = getelementptr inbounds i8, ptr %0, i64 32
  store ptr null, ptr %10, align 8
  %11 = getelementptr inbounds i8, ptr %0, i64 40
  store i32 0, ptr %11, align 8
  %12 = getelementptr inbounds i8, ptr %0, i64 48
  %13 = getelementptr inbounds i8, ptr %0, i64 72
  store ptr null, ptr %13, align 8
  %14 = getelementptr inbounds i8, ptr %0, i64 80
  store i32 0, ptr %14, align 8
  %15 = getelementptr inbounds i8, ptr %0, i64 88
  store ptr null, ptr %15, align 8
  tail call void @llvm.memset.p0.i64(ptr noundef nonnull align 8 dereferenceable(20) %12, i8 0, i64 20, i1 false)
  ret void
}